; Function Attrs: nounwind uwtable
define dso_local void @packstr_with_version(ptr noundef %0, i16 zeroext %1, ptr noundef %2) #0 {
  %.not = icmp eq ptr %0, null
  br i1 %.not, label %8, label %4

4:                                                ; preds = %3
  %5 = tail call i64 @strlen(ptr noundef nonnull dereferenceable(1) %0) #8
  %6 = trunc i64 %5 to i32
  %7 = add i32 %6, 1
  br label %8

8:                                                ; preds = %4, %3
  %.0 = phi i32 [ %7, %4 ], [ 0, %3 ]
  tail call void @packmem(ptr noundef %0, i32 noundef %.0, ptr noundef %2) #7
  ret void
}